(lp0
F3.6486051082611084
aF3.5447328090667725
aF3.9845032691955566
aF3.930436849594116
aF3.9798758029937744
aF3.7677950859069824
aF4.081674098968506
aF3.939288854598999
aF3.984529495239258
aF3.345244884490967
aF4.270290851593018
aF3.935835361480713
aF4.146211624145508
aF3.3406009674072266
aF3.7129316329956055
aF4.006214618682861
aF4.295220375061035
aF3.755997896194458
aF3.9063403606414795
aF3.9176321029663086
aF3.8720412254333496
aF3.729336977005005
aF4.049211502075195
aF3.5375704765319824
aF3.7757997512817383
aF3.968543767929077
aF4.008274078369141
aF3.973968267440796
aF3.752525806427002
aF3.799809455871582
aF3.8720600605010986
aF3.7946691513061523
aF3.9440438747406006
aF3.9113175868988037
aF3.7807273864746094
aF4.284609317779541
aF3.756326198577881
aF4.169463157653809
aF4.282252788543701
aF3.9370062351226807
aF3.9938371181488037
aF4.066238880157471
aF4.260460376739502
aF3.5080454349517822
aF3.613955020904541
aF3.7458670139312744
aF3.956021785736084
aF3.407388687133789
aF4.598135948181152
aF3.8071537017822266
aF3.3378045558929443
aF4.055716037750244
aF3.4850239753723145
aF3.952199935913086
aF3.956123113632202
aF3.525873899459839
aF3.495044231414795
aF3.9222819805145264
aF3.9517569541931152
aF3.8114678859710693
aF3.772671699523926
aF3.693054676055908
aF4.4511871337890625
aF3.8057851791381836
aF3.6717536449432373
aF3.788508892059326
aF3.6102259159088135
aF3.809833288192749
aF3.9245269298553467
aF3.9191904067993164
aF3.838278293609619
aF4.172084331512451
aF4.475586891174316
aF3.906689405441284
aF3.8847079277038574
aF4.089450836181641
aF4.418501853942871
aF3.9262137413024902
aF3.8035073280334473
aF4.007063865661621
aF3.628664255142212
aF4.210648536682129
aF3.480855941772461
aF4.555470943450928
aF4.075432777404785
aF4.166481018066406
aF3.6956470012664795
aF3.7478511333465576
aF4.101979732513428
aF4.482937812805176
aF3.87339186668396
aF4.270817756652832
aF4.291979789733887
aF4.183999061584473
aF3.542921304702759
aF3.494955062866211
aF3.5865626335144043
aF3.9229955673217773
aF4.083757400512695
aF3.4148108959198
aF3.9883852005004883
aF4.085527420043945
aF4.022644996643066
aF4.081219673156738
aF4.199727535247803
aF3.632591485977173
aF3.259732484817505
aF3.85343861579895
aF4.584525108337402
aF3.9062225818634033
aF4.010397911071777
aF4.266866207122803
aF3.821632146835327
aF4.456855297088623
aF3.742863893508911
aF4.006092548370361
aF3.7259583473205566
aF3.732893705368042
aF4.266871929168701
aF3.6323583126068115
aF4.323728084564209
aF4.250601768493652
aF3.6998753547668457
aF3.7020840644836426
aF4.191099643707275
aF3.405632257461548
aF4.297859191894531
aF4.841099262237549
aF4.251453876495361
aF3.847719430923462
aF4.075951099395752
aF3.712002754211426
aF4.3123908042907715
aF4.099645137786865
aF4.138744354248047
aF3.6308743953704834
aF3.700134038925171
aF4.434991836547852
aF3.758981227874756
aF4.1067376136779785
aF4.0526227951049805
aF3.5284366607666016
aF4.078511714935303
aF4.067714214324951
aF4.320384979248047
aF3.988274097442627
aF3.796750068664551
aF3.4561169147491455
aF3.680180072784424
aF3.4142332077026367
aF4.482120513916016
aF4.366207122802734
aF3.646559238433838
aF3.6722397804260254
aF3.771636486053467
aF3.1532301902770996
aF4.335012435913086
aF4.201307773590088
aF4.317665100097656
aF3.434736728668213
aF4.277374744415283
aF3.5656285285949707
aF3.410311698913574
aF4.035073757171631
aF4.411986351013184
aF3.7766687870025635
aF3.5877249240875244
aF3.950136184692383
aF4.159909725189209
aF3.8578407764434814
aF3.828366994857788
aF4.013597011566162
aF3.5789988040924072
aF3.787313222885132
aF4.0090436935424805
aF4.043368339538574
aF3.629138946533203
aF4.27363920211792
aF3.9125235080718994
aF4.106774806976318
aF3.3426523208618164
aF3.382516860961914
aF3.698228359222412
aF3.7106497287750244
aF4.420487880706787
aF3.441619396209717
aF3.7145512104034424
aF3.2584407329559326
aF3.924039602279663
aF4.423621654510498
aF4.314888000488281
aF3.772399425506592
aF3.7039122581481934
aF3.758159637451172
aF3.380441904067993
aF4.01806116104126
aF3.9519646167755127
aF4.306563854217529
aF3.960101366043091
aF3.431882858276367
aF3.8375284671783447
aF3.533264398574829
aF3.7365455627441406
aF4.034409523010254
aF4.100486755371094
aF3.46374773979187
aF3.871702194213867
aF4.468026638031006
aF3.6646690368652344
aF4.1394476890563965
aF3.7759246826171875
aF3.357004404067993
aF3.8923559188842773
aF4.107686519622803
aF3.8846843242645264
aF3.45404314994812
aF3.5802018642425537
aF3.884070634841919
aF3.306689500808716
aF3.756462574005127
aF4.102517604827881
aF3.3770790100097656
aF3.883652925491333
aF3.4933691024780273
aF3.8790810108184814
aF4.466228008270264
aF3.7763161659240723
aF4.155123710632324
aF4.001834869384766
aF4.067590236663818
aF3.843068838119507
aF3.6749463081359863
aF3.5329976081848145
aF4.475120544433594
aF3.4204139709472656
aF3.638184070587158
aF4.041106224060059
aF3.851801633834839
aF3.952166795730591
aF3.969792604446411
aF3.5708189010620117
aF3.7910029888153076
aF4.348240852355957
aF4.163190841674805
aF4.108391284942627
aF3.8627636432647705
aF3.4071407318115234
aF3.631469249725342
aF3.789623498916626
aF3.9297502040863037
aF4.531489372253418
aF3.9575700759887695
aF3.78462815284729
aF3.390972852706909
aF3.4007761478424072
aF4.299792766571045
aF3.6811716556549072
aF3.667133092880249
aF3.8413162231445312
aF4.728603363037109
aF3.7578747272491455
aF4.087529182434082
aF4.026915073394775
aF4.101525783538818
aF4.381612300872803
aF4.124732494354248
aF3.9781298637390137
aF2.886667251586914
aF4.250744819641113
aF4.009263515472412
aF3.400534152984619
aF3.4945077896118164
aF3.509176254272461
aF4.284156799316406
aF3.7993922233581543
aF3.712049961090088
aF3.646487236022949
aF4.309362411499023
aF3.962326765060425
aF4.369119644165039
aF3.6132867336273193
aF3.754370927810669
aF4.390283107757568
aF4.212155342102051
aF3.4629058837890625
aF4.0601420402526855
aF3.6264877319335938
aF3.597292900085449
aF3.48405122756958
aF3.5563886165618896
aF4.082736492156982
aF3.5394277572631836
aF3.9256906509399414
aF4.406275749206543
aF4.093533515930176
aF3.1705873012542725
aF3.9524154663085938
aF3.507554054260254
aF4.28046178817749
aF3.7186107635498047
aF3.38224458694458
aF4.244884490966797
aF3.899782657623291
aF3.087193250656128
aF4.267259120941162
aF3.877554178237915
aF4.342142105102539
aF3.8201487064361572
aF4.260836601257324
aF3.6886675357818604
aF3.1966288089752197
aF3.6031198501586914
aF4.014835357666016
aF3.4986138343811035
aF4.118155479431152
aF4.29804801940918
aF3.5294904708862305
aF4.18760347366333
aF3.9561386108398438
aF3.6030476093292236
aF4.3175740242004395
aF3.8234033584594727
aF3.5288994312286377
aF4.38381814956665
aF3.928956985473633
aF3.8521888256073
aF3.897944450378418
aF3.9607930183410645
aF3.5550503730773926
aF4.194266319274902
aF3.5048861503601074
aF3.881673812866211
aF3.8149406909942627
aF4.073714256286621
aF3.6805899143218994
aF4.445883750915527
aF3.565577507019043
aF3.7764360904693604
aF3.912588357925415
aF4.0087480545043945
aF3.5460920333862305
aF4.737091064453125
aF4.13842248916626
aF4.414198875427246
aF3.6006059646606445
aF3.6085240840911865
aF3.5053882598876953
aF3.3539721965789795
aF3.7988665103912354
aF3.0767102241516113
aF3.9156622886657715
aF3.743950843811035
aF3.4709320068359375
aF3.5555992126464844
aF3.9997894763946533
aF3.8192460536956787
aF4.157516002655029
aF3.9400599002838135
aF3.9389655590057373
aF3.5516719818115234
aF3.690030097961426
aF3.9105172157287598
aF3.6650876998901367
aF3.4009835720062256
aF3.618069887161255
aF4.0787434577941895
aF4.256575107574463
aF4.188504695892334
aF3.0684943199157715
aF4.373380661010742
aF3.846837043762207
aF3.623532295227051
aF4.1496500968933105
aF4.034947872161865
aF3.418339729309082
aF3.7273035049438477
aF4.3655500411987305
aF4.317519187927246
aF3.704890251159668
aF4.3030524253845215
aF3.184741735458374
aF3.690774440765381
aF3.8366174697875977
aF4.040438652038574
aF4.001496315002441
aF4.278355121612549
aF3.4475629329681396
aF3.59020733833313
aF4.016733646392822
aF3.691197156906128
aF4.202297687530518
aF3.9414780139923096
aF4.110445022583008
aF3.724895477294922
aF3.6791999340057373
aF4.080682754516602
aF3.8874127864837646
aF4.001655578613281
aF3.552478790283203
aF3.6041934490203857
aF3.4182116985321045
aF3.7458009719848633
aF3.352832555770874
aF3.401397705078125
aF4.111819267272949
aF3.741957187652588
aF3.3088550567626953
aF3.833991289138794
aF3.6414895057678223
aF3.978849172592163
aF3.9298362731933594
aF3.416916847229004
aF4.0739264488220215
aF3.987940788269043
aF4.1360979080200195
aF4.003323554992676
aF3.5696213245391846
aF3.5340471267700195
aF3.584352493286133
aF3.886946678161621
aF4.072399139404297
aF3.3676199913024902
aF3.8006744384765625
aF3.527207851409912
aF4.116768836975098
aF4.080880641937256
aF4.2803144454956055
aF3.6041412353515625
aF3.5941035747528076
aF3.983173131942749
aF3.584928512573242
aF3.49649715423584
aF4.521601676940918
aF3.369912624359131
aF4.043795108795166
aF3.704759120941162
aF3.7110178470611572
aF4.086093425750732
aF3.7813162803649902
aF3.135711669921875
aF4.057182788848877
aF3.760669469833374
aF4.167932987213135
aF4.044434070587158
aF4.603398323059082
aF3.5663816928863525
aF2.9501562118530273
aF3.5505988597869873
aF3.6622283458709717
aF3.9152915477752686
aF3.936588764190674
aF4.35634708404541
aF3.7800159454345703
aF3.9213669300079346
aF4.262664318084717
aF3.6597371101379395
aF4.0627827644348145
aF3.211644411087036
aF4.106847286224365
aF3.6731467247009277
aF4.124987602233887
aF3.3278017044067383
aF3.985539197921753
aF3.6566882133483887
aF4.018011569976807
aF3.8639659881591797
aF4.445403099060059
aF4.566798686981201
aF4.017462253570557
aF4.152866840362549
aF4.516224384307861
aF4.031450271606445
aF4.071753025054932
aF4.071669578552246
aF3.5114939212799072
aF3.966005563735962
aF3.4415383338928223
aF3.9484729766845703
aF3.9144227504730225
aF3.5072617530822754
aF3.8367197513580322
aF4.269225120544434
aF3.823232650756836
aF3.867424964904785
aF3.4005160331726074
aF3.3637142181396484
aF3.6938817501068115
aF3.9006896018981934
aF4.144700050354004
aF4.009988307952881
aF4.155848503112793
aF3.885509490966797
aF3.7733938694000244
aF3.66262149810791
aF4.205130100250244
aF3.386359930038452
aF3.6272661685943604
aF3.888739585876465
aF4.444090366363525
aF3.5928292274475098
aF3.749025344848633
aF3.9861183166503906
aF3.765786647796631
aF3.6410343647003174
aF4.299934387207031
aF3.8844594955444336
aF4.081390380859375
aF4.189546585083008
aF3.4983601570129395
aF4.261324405670166
aF4.045865058898926
aF3.96766996383667
aF3.3245561122894287
aF3.7726974487304688
aF4.2996368408203125
aF3.6905357837677
aF3.702953815460205
aF4.064451694488525
aF3.367945671081543
aF3.672628879547119
aF3.2015938758850098
aF3.856518030166626
aF3.8272993564605713
aF3.704850435256958
aF3.701390504837036
aF3.826981782913208
aF3.5270323753356934
aF3.997239589691162
aF4.044468879699707
aF3.646266460418701
aF4.051027774810791
aF4.259122371673584
aF3.2952234745025635
aF4.11357307434082
aF3.9865238666534424
aF3.1161372661590576
aF3.435544013977051
aF4.153128623962402
aF3.696772336959839
aF3.6609489917755127
aF3.6479594707489014
aF3.8372716903686523
aF4.427177906036377
aF3.6233441829681396
aF4.164489269256592
aF3.7386112213134766
aF3.7812771797180176
aF4.316129684448242
aF3.7717227935791016
aF3.6927196979522705
aF3.8610153198242188
aF4.2345123291015625
aF4.267806529998779
aF3.530911922454834
aF3.631657838821411
aF3.695396900177002
aF3.712794542312622
aF3.7735278606414795
aF3.7885384559631348
aF3.7064871788024902
aF4.146256923675537
aF4.273745059967041
aF3.766268491744995
aF4.129129409790039
aF3.5118966102600098
aF4.1879167556762695
aF4.2059831619262695
aF3.6973609924316406
aF3.683629035949707
aF3.7774767875671387
aF3.6942100524902344
aF3.7184605598449707
aF3.319129705429077
aF4.050109386444092
aF3.921293020248413
aF4.386898517608643
aF3.4396004676818848
aF4.1093292236328125
aF3.6970765590667725
aF3.994946241378784
aF3.968782901763916
aF3.86894154548645
aF3.525306224822998
aF3.552612066268921
aF3.4030590057373047
aF4.012507915496826
aF3.7320048809051514
aF3.944542407989502
aF3.705604076385498
aF3.7255966663360596
aF4.098883152008057
aF3.949390172958374
aF3.7016544342041016
aF4.091270923614502
aF3.82323956489563
aF4.358023166656494
aF3.7318053245544434
aF2.784954309463501
aF3.961282730102539
aF4.141140937805176
aF3.8273346424102783
aF3.7539587020874023
aF3.4297733306884766
aF4.153972625732422
aF4.2369794845581055
aF4.095348834991455
aF4.059774875640869
aF3.9632458686828613
aF3.766089677810669
aF3.776177167892456
aF4.75418758392334
aF3.8328051567077637
aF3.97623348236084
aF3.3376753330230713
aF3.651090621948242
aF4.647439479827881
aF4.24300479888916
aF3.806098699569702
aF3.4916188716888428
aF3.9184515476226807
aF3.895573616027832
aF3.2269930839538574
aF3.640026330947876
aF4.241741180419922
aF4.119283199310303
aF3.4985058307647705
aF3.7197670936584473
aF3.52640438079834
aF3.879019021987915
aF3.719531536102295
aF3.816385507583618
aF3.5445163249969482
aF4.079668998718262
aF4.119148254394531
aF3.9453673362731934
aF3.2801616191864014
aF4.590875148773193
aF3.9753079414367676
aF3.9018688201904297
aF4.0359601974487305
aF3.878711700439453
aF3.937451124191284
aF3.6401755809783936
aF3.6531283855438232
aF4.232478618621826
aF3.6554205417633057
aF4.598969459533691
aF3.8389484882354736
aF4.367493152618408
aF4.1410441398620605
aF3.8005011081695557
aF3.7926623821258545
aF4.002688407897949
aF3.7032675743103027
aF4.007259368896484
aF4.157176494598389
aF4.002826690673828
aF4.600246429443359
aF3.652168035507202
aF3.5794289112091064
aF3.3353140354156494
aF3.60632061958313
aF3.3615875244140625
aF3.752551317214966
aF4.156547546386719
aF3.8731589317321777
aF3.850701332092285
aF4.061310768127441
aF3.845754623413086
aF3.7020273208618164
aF3.494220018386841
aF4.126979827880859
aF3.825326681137085
aF4.065342426300049
aF3.6608452796936035
aF3.8220198154449463
aF3.961711883544922
aF3.996746778488159
aF3.47564435005188
aF3.844788074493408
aF3.5821337699890137
aF3.56063175201416
aF3.5577304363250732
aF3.6944971084594727
aF3.6650290489196777
aF3.543259382247925
aF3.5635263919830322
aF3.805558204650879
aF3.919316053390503
aF3.9846901893615723
aF3.9124083518981934
aF4.188528060913086
aF3.983370542526245
aF4.335686683654785
aF3.6185190677642822
aF3.3149681091308594
aF4.014223575592041
aF3.870598554611206
aF3.180368661880493
aF3.6997103691101074
aF3.8263375759124756
aF4.032435894012451
aF3.742767095565796
aF3.9039955139160156
aF3.8592512607574463
aF4.1542840003967285
aF3.5180459022521973
aF3.8364272117614746
aF3.9945974349975586
aF3.615025043487549
aF3.627342462539673
aF3.7380638122558594
aF3.8494582176208496
aF4.495393753051758
aF3.926309585571289
aF4.163017749786377
aF4.208309173583984
aF3.8462157249450684
aF3.5721492767333984
aF3.9432387351989746
aF3.783715009689331
aF3.2324447631835938
aF3.731327772140503
aF4.111302852630615
aF3.372436046600342
aF3.0987894535064697
aF3.7601704597473145
aF4.60495662689209
aF4.192099094390869
aF3.704231023788452
aF4.070993900299072
aF4.258995532989502
aF3.7213995456695557
aF3.873677968978882
aF3.9748494625091553
aF3.8778727054595947
aF4.247702598571777
aF4.506075382232666
aF3.770110607147217
aF4.079285621643066
aF3.30617094039917
aF4.06477165222168
aF3.614522933959961
aF3.6394340991973877
aF3.643455743789673
aF3.5131447315216064
aF3.726426601409912
aF4.358003616333008
aF3.025606870651245
aF3.4914958477020264
aF3.862211227416992
aF3.8221964836120605
aF4.054141044616699
aF3.834932327270508
aF3.819507122039795
aF3.7809395790100098
aF4.01361608505249
aF3.7525346279144287
aF3.8096253871917725
aF3.3933937549591064
aF4.245584964752197
aF4.46071720123291
aF3.4496169090270996
aF4.33444356918335
aF3.9153735637664795
aF3.704946994781494
aF3.7570080757141113
aF4.357177734375
aF3.9159045219421387
aF3.962874412536621
aF3.7580649852752686
aF3.6657261848449707
aF3.864712953567505
aF3.9098269939422607
aF3.4854307174682617
aF3.747771739959717
aF3.657799482345581
aF4.008841037750244
aF3.646960496902466
aF4.367252349853516
aF3.6902248859405518
aF3.5987722873687744
aF3.5717570781707764
aF3.6092002391815186
aF3.595095157623291
aF3.975802183151245
aF3.783951997756958
aF4.4618353843688965
aF4.5307488441467285
aF3.4611103534698486
aF3.5712409019470215
aF3.4117472171783447
aF3.3584933280944824
aF3.6758832931518555
aF4.286978244781494
aF3.8152804374694824
aF4.124289035797119
aF3.4223828315734863
aF3.6570472717285156
aF3.441443681716919
aF3.779557466506958
aF4.155065059661865
aF3.7590270042419434
aF3.837738275527954
aF3.9725558757781982
aF4.084292888641357
aF3.7949793338775635
aF3.8972506523132324
aF3.7592575550079346
aF4.3401384353637695
aF3.841885566711426
aF3.9614405632019043
aF3.834954023361206
aF3.6082582473754883
aF3.954314947128296
aF3.7823917865753174
aF4.423746585845947
aF3.7768337726593018
aF4.18349552154541
aF3.8678855895996094
aF3.693563461303711
aF4.120375633239746
aF4.05265474319458
aF4.13631534576416
aF4.032400608062744
aF3.4994375705718994
aF3.8464248180389404
aF4.077000617980957
aF3.8427963256835938
aF4.204577445983887
aF3.7565255165100098
aF3.84047269821167
aF3.9587395191192627
aF4.142820835113525
aF3.981943130493164
aF3.7914352416992188
aF4.155539035797119
aF3.7861132621765137
aF4.083292484283447
aF4.064279079437256
aF3.463182210922241
aF3.8523991107940674
aF3.620523691177368
aF3.7638089656829834
aF4.150384426116943
aF3.726616621017456
aF3.377408504486084
aF4.622282028198242
aF4.043900489807129
aF3.686131238937378
aF3.606239080429077
aF4.1148295402526855
aF3.299787759780884
aF3.6873438358306885
aF3.693446159362793
aF3.593721628189087
aF3.4053094387054443
aF3.8173954486846924
aF4.181686878204346
aF3.8427815437316895
aF4.002306938171387
aF3.643115758895874
aF3.9123265743255615
aF4.201777458190918
aF3.914846897125244
aF3.8389971256256104
aF3.9503605365753174
aF3.50897479057312
aF3.969261646270752
aF3.765004873275757
aF3.569969892501831
aF4.0599365234375
aF3.659054756164551
aF3.8581295013427734
aF4.210586071014404
aF3.9492297172546387
aF3.9913792610168457
aF3.716763973236084
aF3.768303394317627
aF3.976208448410034
aF3.566892147064209
aF4.271008491516113
aF3.7589163780212402
aF4.111454010009766
aF4.581510066986084
aF4.086148262023926
aF4.002120018005371
aF4.196132659912109
aF3.637007713317871
aF3.437790870666504
aF4.318936347961426
aF3.713196039199829
aF4.121463298797607
aF4.314939975738525
aF3.88083815574646
aF3.910430908203125
aF4.172905921936035
aF3.7885289192199707
aF3.7793614864349365
aF3.887770891189575
aF3.8480372428894043
aF3.649090051651001
aF3.872363567352295
aF4.141683101654053
aF3.8813095092773438
aF3.9122354984283447
aF3.2846105098724365
aF3.7975449562072754
aF4.05768346786499
aF3.7251365184783936
aF3.978822708129883
aF3.7679708003997803
aF3.8338539600372314
aF4.04822301864624
aF3.380953788757324
aF3.8165886402130127
aF3.459395408630371
aF3.566413640975952
aF4.101099491119385
aF3.5811078548431396
aF2.9508583545684814
aF3.518796920776367
aF4.211112022399902
aF3.853494167327881
aF3.842825412750244
aF3.505924940109253
aF3.8349435329437256
aF3.459343671798706
aF3.590977668762207
aF4.312820911407471
aF4.239053249359131
aF3.809601068496704
aF4.119617938995361
aF3.5570120811462402
aF4.252532482147217
aF4.1733479499816895
aF3.7435882091522217
aF3.9746973514556885
aF3.9796416759490967
aF4.397947311401367
aF4.11443567276001
aF4.055917739868164
aF4.157955646514893
aF3.70184588432312
aF4.504814147949219
aF3.3832359313964844
aF3.966299057006836
aF3.587928533554077
aF3.694478988647461
aF3.4760749340057373
aF3.7119829654693604
aF3.887650966644287
aF4.038849353790283
aF3.4766955375671387
aF4.392238140106201
aF2.9199657440185547
aF4.024991512298584
aF3.829306125640869
aF3.654529094696045
aF4.2699432373046875
aF3.7991793155670166
aF3.8892626762390137
aF3.741245746612549
aF3.919861078262329
aF3.6925582885742188
aF4.237034320831299
aF4.057230472564697
aF3.630852222442627
aF4.054070949554443
aF3.8619439601898193
aF4.118109226226807
aF3.6766459941864014
aF4.098801136016846
aF4.134161472320557
aF4.198557376861572
aF3.8534345626831055
aF3.581111192703247
aF3.9382550716400146
aF3.877824306488037
aF3.6935691833496094
aF3.9817357063293457
aF4.434443473815918
aF3.6156582832336426
aF4.173903465270996
aF3.8325939178466797
aF4.510654926300049
aF3.6952483654022217
aF4.265885829925537
aF3.7179384231567383
aF4.203253269195557
aF3.5941858291625977
aF3.2177133560180664
aF3.7167749404907227
aF4.412248611450195
aF3.6944031715393066
aF4.026193141937256
aF4.207911968231201
aF3.8061468601226807
aF4.0741705894470215
aF3.9263341426849365
a.